target datalayout = "e-m:e-p270:32:32-p271:32:32-p272:64:64-i64:64-i128:128-f80:128-n8:16:32:64-S128"
target triple = "x86_64-unknown-linux-gnu"

%"struct.ClipperLib::IntPoint" = type { i64, i64 }

; Function Attrs: mustprogress nounwind uwtable
define hidden noundef double @_ZN10ClipperLib20DistanceFromLineSqrdERKNS_8IntPointES2_S2_(ptr noundef nonnull align 8 dereferenceable(16) %pt, ptr noundef nonnull align 8 dereferenceable(16) %ln1, ptr noundef nonnull align 8 dereferenceable(16) %ln2) #1 {
entry:
  %pt.addr = alloca ptr, align 8
  %ln1.addr = alloca ptr, align 8
  %ln2.addr = alloca ptr, align 8
  %A = alloca double, align 8
  %B = alloca double, align 8
  %C = alloca double, align 8
  store ptr %pt, ptr %pt.addr, align 8
  store ptr %ln1, ptr %ln1.addr, align 8
  store ptr %ln2, ptr %ln2.addr, align 8
  %0 = load ptr, ptr %ln1.addr, align 8
  %Y = getelementptr inbounds %"struct.ClipperLib::IntPoint", ptr %0, i32 0, i32 1
  %1 = load i64, ptr %Y, align 8
  %2 = load ptr, ptr %ln2.addr, align 8
  %Y1 = getelementptr inbounds %"struct.ClipperLib::IntPoint", ptr %2, i32 0, i32 1
  %3 = load i64, ptr %Y1, align 8
  %sub = sub nsw i64 %1, %3
  %conv = sitofp i64 %sub to double
  store double %conv, ptr %A, align 8
  %4 = load ptr, ptr %ln2.addr, align 8
  %X = getelementptr inbounds %"struct.ClipperLib::IntPoint", ptr %4, i32 0, i32 0
  %5 = load i64, ptr %X, align 8
  %6 = load ptr, ptr %ln1.addr, align 8
  %X2 = getelementptr inbounds %"struct.ClipperLib::IntPoint", ptr %6, i32 0, i32 0
  %7 = load i64, ptr %X2, align 8
  %sub3 = sub nsw i64 %5, %7
  %conv4 = sitofp i64 %sub3 to double
  store double %conv4, ptr %B, align 8
  %8 = load double, ptr %A, align 8
  %9 = load ptr, ptr %ln1.addr, align 8
  %X5 = getelementptr inbounds %"struct.ClipperLib::IntPoint", ptr %9, i32 0, i32 0
  %10 = load i64, ptr %X5, align 8
  %conv6 = sitofp i64 %10 to double
  %11 = load double, ptr %B, align 8
  %12 = load ptr, ptr %ln1.addr, align 8
  %Y7 = getelementptr inbounds %"struct.ClipperLib::IntPoint", ptr %12, i32 0, i32 1
  %13 = load i64, ptr %Y7, align 8
  %conv8 = sitofp i64 %13 to double
  %mul9 = fmul double %11, %conv8
  %14 = call double @llvm.fmuladd.f64(double %8, double %conv6, double %mul9)
  store double %14, ptr %C, align 8
  %15 = load double, ptr %A, align 8
  %16 = load ptr, ptr %pt.addr, align 8
  %X10 = getelementptr inbounds %"struct.ClipperLib::IntPoint", ptr %16, i32 0, i32 0
  %17 = load i64, ptr %X10, align 8
  %conv11 = sitofp i64 %17 to double
  %18 = load double, ptr %B, align 8
  %19 = load ptr, ptr %pt.addr, align 8
  %Y12 = getelementptr inbounds %"struct.ClipperLib::IntPoint", ptr %19, i32 0, i32 1
  %20 = load i64, ptr %Y12, align 8
  %conv13 = sitofp i64 %20 to double
  %mul14 = fmul double %18, %conv13
  %21 = call double @llvm.fmuladd.f64(double %15, double %conv11, double %mul14)
  %22 = load double, ptr %C, align 8
  %sub15 = fsub double %21, %22
  store double %sub15, ptr %C, align 8
  %23 = load double, ptr %C, align 8
  %24 = load double, ptr %C, align 8
  %mul = fmul double %23, %24
  %25 = load double, ptr %A, align 8
  %26 = load double, ptr %A, align 8
  %27 = load double, ptr %B, align 8
  %28 = load double, ptr %B, align 8
  %mul17 = fmul double %27, %28
  %29 = call double @llvm.fmuladd.f64(double %25, double %26, double %mul17)
  %div = fdiv double %mul, %29
  ret double %div
}

; Function Attrs: mustprogress nounwind uwtable
define linkonce_odr hidden noundef i64 @_ZN10ClipperLib3AbsEx(i64 noundef %val) #1 comdat {
entry:
  %val.addr = alloca i64, align 8
  store i64 %val, ptr %val.addr, align 8
  %0 = load i64, ptr %val.addr, align 8
  %cmp = icmp slt i64 %0, 0
  br i1 %cmp, label %cond.true, label %cond.false

cond.true:                                        ; preds = %entry
  %1 = load i64, ptr %val.addr, align 8
  %sub = sub nsw i64 0, %1
  br label %cond.end

cond.false:                                       ; preds = %entry
  %2 = load i64, ptr %val.addr, align 8
  br label %cond.end

cond.end:                                         ; preds = %cond.false, %cond.true
  %cond = phi i64 [ %sub, %cond.true ], [ %2, %cond.false ]
  ret i64 %cond
}

; Function Attrs: mustprogress uwtable
define hidden noundef zeroext i1 @_ZN10ClipperLib19SlopesNearCollinearERKNS_8IntPointES2_S2_d(ptr noundef nonnull align 8 dereferenceable(16) %pt1, ptr noundef nonnull align 8 dereferenceable(16) %pt2, ptr noundef nonnull align 8 dereferenceable(16) %pt3, double noundef %distSqrd) #0 {
entry:
  %retval = alloca i1, align 1
  %pt1.addr = alloca ptr, align 8
  %pt2.addr = alloca ptr, align 8
  %pt3.addr = alloca ptr, align 8
  %distSqrd.addr = alloca double, align 8
  store ptr %pt1, ptr %pt1.addr, align 8
  store ptr %pt2, ptr %pt2.addr, align 8
  store ptr %pt3, ptr %pt3.addr, align 8
  store double %distSqrd, ptr %distSqrd.addr, align 8
  %0 = load ptr, ptr %pt1.addr, align 8
  %X = getelementptr inbounds %"struct.ClipperLib::IntPoint", ptr %0, i32 0, i32 0
  %1 = load i64, ptr %X, align 8
  %2 = load ptr, ptr %pt2.addr, align 8
  %X1 = getelementptr inbounds %"struct.ClipperLib::IntPoint", ptr %2, i32 0, i32 0
  %3 = load i64, ptr %X1, align 8
  %sub = sub nsw i64 %1, %3
  %call = call noundef i64 @_ZN10ClipperLib3AbsEx(i64 noundef %sub)
  %4 = load ptr, ptr %pt1.addr, align 8
  %Y = getelementptr inbounds %"struct.ClipperLib::IntPoint", ptr %4, i32 0, i32 1
  %5 = load i64, ptr %Y, align 8
  %6 = load ptr, ptr %pt2.addr, align 8
  %Y2 = getelementptr inbounds %"struct.ClipperLib::IntPoint", ptr %6, i32 0, i32 1
  %7 = load i64, ptr %Y2, align 8
  %sub3 = sub nsw i64 %5, %7
  %call4 = call noundef i64 @_ZN10ClipperLib3AbsEx(i64 noundef %sub3)
  %cmp = icmp sgt i64 %call, %call4
  br i1 %cmp, label %if.then, label %if.else31

if.then:                                          ; preds = %entry
  %8 = load ptr, ptr %pt1.addr, align 8
  %X5 = getelementptr inbounds %"struct.ClipperLib::IntPoint", ptr %8, i32 0, i32 0
  %9 = load i64, ptr %X5, align 8
  %10 = load ptr, ptr %pt2.addr, align 8
  %X6 = getelementptr inbounds %"struct.ClipperLib::IntPoint", ptr %10, i32 0, i32 0
  %11 = load i64, ptr %X6, align 8
  %cmp7 = icmp sgt i64 %9, %11
  %conv = zext i1 %cmp7 to i32
  %12 = load ptr, ptr %pt1.addr, align 8
  %X8 = getelementptr inbounds %"struct.ClipperLib::IntPoint", ptr %12, i32 0, i32 0
  %13 = load i64, ptr %X8, align 8
  %14 = load ptr, ptr %pt3.addr, align 8
  %X9 = getelementptr inbounds %"struct.ClipperLib::IntPoint", ptr %14, i32 0, i32 0
  %15 = load i64, ptr %X9, align 8
  %cmp10 = icmp slt i64 %13, %15
  %conv11 = zext i1 %cmp10 to i32
  %cmp12 = icmp eq i32 %conv, %conv11
  br i1 %cmp12, label %if.then13, label %if.else

if.then13:                                        ; preds = %if.then
  %16 = load ptr, ptr %pt1.addr, align 8
  %17 = load ptr, ptr %pt2.addr, align 8
  %18 = load ptr, ptr %pt3.addr, align 8
  %call14 = call noundef double @_ZN10ClipperLib20DistanceFromLineSqrdERKNS_8IntPointES2_S2_(ptr noundef nonnull align 8 dereferenceable(16) %16, ptr noundef nonnull align 8 dereferenceable(16) %17, ptr noundef nonnull align 8 dereferenceable(16) %18)
  %19 = load double, ptr %distSqrd.addr, align 8
  %cmp15 = fcmp olt double %call14, %19
  store i1 %cmp15, ptr %retval, align 1
  br label %return

if.else:                                          ; preds = %if.then
  %20 = load ptr, ptr %pt2.addr, align 8
  %X16 = getelementptr inbounds %"struct.ClipperLib::IntPoint", ptr %20, i32 0, i32 0
  %21 = load i64, ptr %X16, align 8
  %22 = load ptr, ptr %pt1.addr, align 8
  %X17 = getelementptr inbounds %"struct.ClipperLib::IntPoint", ptr %22, i32 0, i32 0
  %23 = load i64, ptr %X17, align 8
  %cmp18 = icmp sgt i64 %21, %23
  %conv19 = zext i1 %cmp18 to i32
  %24 = load ptr, ptr %pt2.addr, align 8
  %X20 = getelementptr inbounds %"struct.ClipperLib::IntPoint", ptr %24, i32 0, i32 0
  %25 = load i64, ptr %X20, align 8
  %26 = load ptr, ptr %pt3.addr, align 8
  %X21 = getelementptr inbounds %"struct.ClipperLib::IntPoint", ptr %26, i32 0, i32 0
  %27 = load i64, ptr %X21, align 8
  %cmp22 = icmp slt i64 %25, %27
  %conv23 = zext i1 %cmp22 to i32
  %cmp24 = icmp eq i32 %conv19, %conv23
  br i1 %cmp24, label %if.then25, label %if.else28

if.then25:                                        ; preds = %if.else
  %28 = load ptr, ptr %pt2.addr, align 8
  %29 = load ptr, ptr %pt1.addr, align 8
  %30 = load ptr, ptr %pt3.addr, align 8
  %call26 = call noundef double @_ZN10ClipperLib20DistanceFromLineSqrdERKNS_8IntPointES2_S2_(ptr noundef nonnull align 8 dereferenceable(16) %28, ptr noundef nonnull align 8 dereferenceable(16) %29, ptr noundef nonnull align 8 dereferenceable(16) %30)
  %31 = load double, ptr %distSqrd.addr, align 8
  %cmp27 = fcmp olt double %call26, %31
  store i1 %cmp27, ptr %retval, align 1
  br label %return

if.else28:                                        ; preds = %if.else
  %32 = load ptr, ptr %pt3.addr, align 8
  %33 = load ptr, ptr %pt1.addr, align 8
  %34 = load ptr, ptr %pt2.addr, align 8
  %call29 = call noundef double @_ZN10ClipperLib20DistanceFromLineSqrdERKNS_8IntPointES2_S2_(ptr noundef nonnull align 8 dereferenceable(16) %32, ptr noundef nonnull align 8 dereferenceable(16) %33, ptr noundef nonnull align 8 dereferenceable(16) %34)
  %35 = load double, ptr %distSqrd.addr, align 8
  %cmp30 = fcmp olt double %call29, %35
  store i1 %cmp30, ptr %retval, align 1
  br label %return

if.else31:                                        ; preds = %entry
  %36 = load ptr, ptr %pt1.addr, align 8
  %Y32 = getelementptr inbounds %"struct.ClipperLib::IntPoint", ptr %36, i32 0, i32 1
  %37 = load i64, ptr %Y32, align 8
  %38 = load ptr, ptr %pt2.addr, align 8
  %Y33 = getelementptr inbounds %"struct.ClipperLib::IntPoint", ptr %38, i32 0, i32 1
  %39 = load i64, ptr %Y33, align 8
  %cmp34 = icmp sgt i64 %37, %39
  %conv35 = zext i1 %cmp34 to i32
  %40 = load ptr, ptr %pt1.addr, align 8
  %Y36 = getelementptr inbounds %"struct.ClipperLib::IntPoint", ptr %40, i32 0, i32 1
  %41 = load i64, ptr %Y36, align 8
  %42 = load ptr, ptr %pt3.addr, align 8
  %Y37 = getelementptr inbounds %"struct.ClipperLib::IntPoint", ptr %42, i32 0, i32 1
  %43 = load i64, ptr %Y37, align 8
  %cmp38 = icmp slt i64 %41, %43
  %conv39 = zext i1 %cmp38 to i32
  %cmp40 = icmp eq i32 %conv35, %conv39
  br i1 %cmp40, label %if.then41, label %if.else44

if.then41:                                        ; preds = %if.else31
  %44 = load ptr, ptr %pt1.addr, align 8
  %45 = load ptr, ptr %pt2.addr, align 8
  %46 = load ptr, ptr %pt3.addr, align 8
  %call42 = call noundef double @_ZN10ClipperLib20DistanceFromLineSqrdERKNS_8IntPointES2_S2_(ptr noundef nonnull align 8 dereferenceable(16) %44, ptr noundef nonnull align 8 dereferenceable(16) %45, ptr noundef nonnull align 8 dereferenceable(16) %46)
  %47 = load double, ptr %distSqrd.addr, align 8
  %cmp43 = fcmp olt double %call42, %47
  store i1 %cmp43, ptr %retval, align 1
  br label %return

if.else44:                                        ; preds = %if.else31
  %48 = load ptr, ptr %pt2.addr, align 8
  %Y45 = getelementptr inbounds %"struct.ClipperLib::IntPoint", ptr %48, i32 0, i32 1
  %49 = load i64, ptr %Y45, align 8
  %50 = load ptr, ptr %pt1.addr, align 8
  %Y46 = getelementptr inbounds %"struct.ClipperLib::IntPoint", ptr %50, i32 0, i32 1
  %51 = load i64, ptr %Y46, align 8
  %cmp47 = icmp sgt i64 %49, %51
  %conv48 = zext i1 %cmp47 to i32
  %52 = load ptr, ptr %pt2.addr, align 8
  %Y49 = getelementptr inbounds %"struct.ClipperLib::IntPoint", ptr %52, i32 0, i32 1
  %53 = load i64, ptr %Y49, align 8
  %54 = load ptr, ptr %pt3.addr, align 8
  %Y50 = getelementptr inbounds %"struct.ClipperLib::IntPoint", ptr %54, i32 0, i32 1
  %55 = load i64, ptr %Y50, align 8
  %cmp51 = icmp slt i64 %53, %55
  %conv52 = zext i1 %cmp51 to i32
  %cmp53 = icmp eq i32 %conv48, %conv52
  br i1 %cmp53, label %if.then54, label %if.else57

if.then54:                                        ; preds = %if.else44
  %56 = load ptr, ptr %pt2.addr, align 8
  %57 = load ptr, ptr %pt1.addr, align 8
  %58 = load ptr, ptr %pt3.addr, align 8
  %call55 = call noundef double @_ZN10ClipperLib20DistanceFromLineSqrdERKNS_8IntPointES2_S2_(ptr noundef nonnull align 8 dereferenceable(16) %56, ptr noundef nonnull align 8 dereferenceable(16) %57, ptr noundef nonnull align 8 dereferenceable(16) %58)
  %59 = load double, ptr %distSqrd.addr, align 8
  %cmp56 = fcmp olt double %call55, %59
  store i1 %cmp56, ptr %retval, align 1
  br label %return

if.else57:                                        ; preds = %if.else44
  %60 = load ptr, ptr %pt3.addr, align 8
  %61 = load ptr, ptr %pt1.addr, align 8
  %62 = load ptr, ptr %pt2.addr, align 8
  %call58 = call noundef double @_ZN10ClipperLib20DistanceFromLineSqrdERKNS_8IntPointES2_S2_(ptr noundef nonnull align 8 dereferenceable(16) %60, ptr noundef nonnull align 8 dereferenceable(16) %61, ptr noundef nonnull align 8 dereferenceable(16) %62)
  %63 = load double, ptr %distSqrd.addr, align 8
  %cmp59 = fcmp olt double %call58, %63
  store i1 %cmp59, ptr %retval, align 1
  br label %return

return:                                           ; preds = %if.else57, %if.then54, %if.then41, %if.else28, %if.then25, %if.then13
  %64 = load i1, ptr %retval, align 1
  ret i1 %64
}