; Function Attrs: mustprogress nofree norecurse nosync nounwind willreturn memory(argmem: read) uwtable
define hidden noundef zeroext i1 @_ZN10ClipperLib19SlopesNearCollinearERKNS_8IntPointES2_S2_d(ptr nocapture noundef nonnull readonly align 8 dereferenceable(16) %pt1, ptr nocapture noundef nonnull readonly align 8 dereferenceable(16) %pt2, ptr nocapture noundef nonnull readonly align 8 dereferenceable(16) %pt3, double noundef %distSqrd) local_unnamed_addr #3 {
entry:
  %0 = load i64, ptr %pt1, align 8
  %1 = load i64, ptr %pt2, align 8
  %sub = sub nsw i64 %0, %1
  %cond.i = tail call noundef i64 @llvm.abs.i64(i64 %sub, i1 true)
  %Y = getelementptr inbounds i8, ptr %pt1, i64 8
  %2 = load i64, ptr %Y, align 8
  %Y2 = getelementptr inbounds i8, ptr %pt2, i64 8
  %3 = load i64, ptr %Y2, align 8
  %sub3 = sub nsw i64 %2, %3
  %cond.i41 = tail call noundef i64 @llvm.abs.i64(i64 %sub3, i1 true)
  %cmp = icmp ugt i64 %cond.i, %cond.i41
  br i1 %cmp, label %if.then, label %if.else31

if.then:                                          ; preds = %entry
  %cmp7 = icmp sgt i64 %0, %1
  %4 = load i64, ptr %pt3, align 8
  %5 = icmp sge i64 %0, %4
  %cmp12 = xor i1 %cmp7, %5
  br i1 %cmp12, label %if.then13, label %if.else

if.then13:                                        ; preds = %if.then
  %Y1.i = getelementptr inbounds i8, ptr %pt3, i64 8
  %6 = load i64, ptr %Y1.i, align 8
  %sub.i = sub nsw i64 %3, %6
  %conv.i = sitofp i64 %sub.i to double
  %sub3.i = sub nsw i64 %4, %1
  %conv4.i = sitofp i64 %sub3.i to double
  %conv6.i = sitofp i64 %1 to double
  %conv8.i = sitofp i64 %3 to double
  %mul9.i = fmul double %conv8.i, %conv4.i
  %7 = tail call double @llvm.fmuladd.f64(double %conv.i, double %conv6.i, double %mul9.i)
  %conv11.i = sitofp i64 %0 to double
  %conv13.i = sitofp i64 %2 to double
  %mul14.i = fmul double %conv13.i, %conv4.i
  %8 = tail call double @llvm.fmuladd.f64(double %conv.i, double %conv11.i, double %mul14.i)
  %sub15.i = fsub double %8, %7
  %mul.i = fmul double %sub15.i, %sub15.i
  %mul17.i = fmul double %conv4.i, %conv4.i
  %9 = tail call double @llvm.fmuladd.f64(double %conv.i, double %conv.i, double %mul17.i)
  %div.i = fdiv double %mul.i, %9
  br label %return

if.else:                                          ; preds = %if.then
  %cmp18 = icmp sgt i64 %1, %0
  %10 = icmp sge i64 %1, %4
  %cmp24 = xor i1 %cmp18, %10
  br i1 %cmp24, label %if.then25, label %if.else28

if.then25:                                        ; preds = %if.else
  %Y1.i43 = getelementptr inbounds i8, ptr %pt3, i64 8
  %11 = load i64, ptr %Y1.i43, align 8
  %sub.i44 = sub nsw i64 %2, %11
  %conv.i45 = sitofp i64 %sub.i44 to double
  %sub3.i46 = sub nsw i64 %4, %0
  %conv4.i47 = sitofp i64 %sub3.i46 to double
  %conv6.i48 = sitofp i64 %0 to double
  %conv8.i49 = sitofp i64 %2 to double
  %mul9.i50 = fmul double %conv8.i49, %conv4.i47
  %12 = tail call double @llvm.fmuladd.f64(double %conv.i45, double %conv6.i48, double %mul9.i50)
  %conv11.i51 = sitofp i64 %1 to double
  %conv13.i53 = sitofp i64 %3 to double
  %mul14.i54 = fmul double %conv13.i53, %conv4.i47
  %13 = tail call double @llvm.fmuladd.f64(double %conv.i45, double %conv11.i51, double %mul14.i54)
  %sub15.i55 = fsub double %13, %12
  %mul.i56 = fmul double %sub15.i55, %sub15.i55
  %mul17.i57 = fmul double %conv4.i47, %conv4.i47
  %14 = tail call double @llvm.fmuladd.f64(double %conv.i45, double %conv.i45, double %mul17.i57)
  %div.i58 = fdiv double %mul.i56, %14
  br label %return

if.else28:                                        ; preds = %if.else
  %conv.i62 = sitofp i64 %sub3 to double
  %sub3.i63 = sub nsw i64 %1, %0
  %conv4.i64 = sitofp i64 %sub3.i63 to double
  %conv6.i65 = sitofp i64 %0 to double
  %conv8.i66 = sitofp i64 %2 to double
  %mul9.i67 = fmul double %conv8.i66, %conv4.i64
  %15 = tail call double @llvm.fmuladd.f64(double %conv.i62, double %conv6.i65, double %mul9.i67)
  %conv11.i68 = sitofp i64 %4 to double
  %Y12.i69 = getelementptr inbounds i8, ptr %pt3, i64 8
  %16 = load i64, ptr %Y12.i69, align 8
  %conv13.i70 = sitofp i64 %16 to double
  %mul14.i71 = fmul double %conv4.i64, %conv13.i70
  %17 = tail call double @llvm.fmuladd.f64(double %conv.i62, double %conv11.i68, double %mul14.i71)
  %sub15.i72 = fsub double %17, %15
  %mul.i73 = fmul double %sub15.i72, %sub15.i72
  %mul17.i74 = fmul double %conv4.i64, %conv4.i64
  %18 = tail call double @llvm.fmuladd.f64(double %conv.i62, double %conv.i62, double %mul17.i74)
  %div.i75 = fdiv double %mul.i73, %18
  br label %return

if.else31:                                        ; preds = %entry
  %cmp34 = icmp sgt i64 %2, %3
  %Y37 = getelementptr inbounds i8, ptr %pt3, i64 8
  %19 = load i64, ptr %Y37, align 8
  %20 = icmp sge i64 %2, %19
  %cmp40 = xor i1 %cmp34, %20
  br i1 %cmp40, label %if.then41, label %if.else44

if.then41:                                        ; preds = %if.else31
  %sub.i78 = sub nsw i64 %3, %19
  %conv.i79 = sitofp i64 %sub.i78 to double
  %21 = load i64, ptr %pt3, align 8
  %sub3.i80 = sub nsw i64 %21, %1
  %conv4.i81 = sitofp i64 %sub3.i80 to double
  %conv6.i82 = sitofp i64 %1 to double
  %conv8.i83 = sitofp i64 %3 to double
  %mul9.i84 = fmul double %conv8.i83, %conv4.i81
  %22 = tail call double @llvm.fmuladd.f64(double %conv.i79, double %conv6.i82, double %mul9.i84)
  %conv11.i85 = sitofp i64 %0 to double
  %conv13.i87 = sitofp i64 %2 to double
  %mul14.i88 = fmul double %conv13.i87, %conv4.i81
  %23 = tail call double @llvm.fmuladd.f64(double %conv.i79, double %conv11.i85, double %mul14.i88)
  %sub15.i89 = fsub double %23, %22
  %mul.i90 = fmul double %sub15.i89, %sub15.i89
  %mul17.i91 = fmul double %conv4.i81, %conv4.i81
  %24 = tail call double @llvm.fmuladd.f64(double %conv.i79, double %conv.i79, double %mul17.i91)
  %div.i92 = fdiv double %mul.i90, %24
  br label %return

if.else44:                                        ; preds = %if.else31
  %cmp47 = icmp sgt i64 %3, %2
  %25 = icmp sge i64 %3, %19
  %cmp53 = xor i1 %cmp47, %25
  br i1 %cmp53, label %if.then54, label %if.else57

if.then54:                                        ; preds = %if.else44
  %sub.i95 = sub nsw i64 %2, %19
  %conv.i96 = sitofp i64 %sub.i95 to double
  %26 = load i64, ptr %pt3, align 8
  %sub3.i97 = sub nsw i64 %26, %0
  %conv4.i98 = sitofp i64 %sub3.i97 to double
  %conv6.i99 = sitofp i64 %0 to double
  %conv8.i100 = sitofp i64 %2 to double
  %mul9.i101 = fmul double %conv8.i100, %conv4.i98
  %27 = tail call double @llvm.fmuladd.f64(double %conv.i96, double %conv6.i99, double %mul9.i101)
  %conv11.i102 = sitofp i64 %1 to double
  %conv13.i104 = sitofp i64 %3 to double
  %mul14.i105 = fmul double %conv13.i104, %conv4.i98
  %28 = tail call double @llvm.fmuladd.f64(double %conv.i96, double %conv11.i102, double %mul14.i105)
  %sub15.i106 = fsub double %28, %27
  %mul.i107 = fmul double %sub15.i106, %sub15.i106
  %mul17.i108 = fmul double %conv4.i98, %conv4.i98
  %29 = tail call double @llvm.fmuladd.f64(double %conv.i96, double %conv.i96, double %mul17.i108)
  %div.i109 = fdiv double %mul.i107, %29
  br label %return

if.else57:                                        ; preds = %if.else44
  %conv.i113 = sitofp i64 %sub3 to double
  %sub3.i114 = sub nsw i64 %1, %0
  %conv4.i115 = sitofp i64 %sub3.i114 to double
  %conv6.i116 = sitofp i64 %0 to double
  %conv8.i117 = sitofp i64 %2 to double
  %mul9.i118 = fmul double %conv8.i117, %conv4.i115
  %30 = tail call double @llvm.fmuladd.f64(double %conv.i113, double %conv6.i116, double %mul9.i118)
  %31 = load i64, ptr %pt3, align 8
  %conv11.i119 = sitofp i64 %31 to double
  %conv13.i121 = sitofp i64 %19 to double
  %mul14.i122 = fmul double %conv4.i115, %conv13.i121
  %32 = tail call double @llvm.fmuladd.f64(double %conv.i113, double %conv11.i119, double %mul14.i122)
  %sub15.i123 = fsub double %32, %30
  %mul.i124 = fmul double %sub15.i123, %sub15.i123
  %mul17.i125 = fmul double %conv4.i115, %conv4.i115
  %33 = tail call double @llvm.fmuladd.f64(double %conv.i113, double %conv.i113, double %mul17.i125)
  %div.i126 = fdiv double %mul.i124, %33
  br label %return

return:                                           ; preds = %if.else57, %if.then54, %if.then41, %if.else28, %if.then25, %if.then13
  %call14.pn = phi double [ %div.i, %if.then13 ], [ %div.i58, %if.then25 ], [ %div.i75, %if.else28 ], [ %div.i92, %if.then41 ], [ %div.i109, %if.then54 ], [ %div.i126, %if.else57 ]
  %retval.0 = fcmp olt double %call14.pn, %distSqrd
  ret i1 %retval.0
}